target datalayout = "e-m:e-p270:32:32-p271:32:32-p272:64:64-i64:64-i128:128-f80:128-n8:16:32:64-S128"
target triple = "x86_64-pc-linux-gnu"

%struct.dt_imageio_module_format_t = type { %struct.dt_action_t, ptr, ptr, ptr, ptr, ptr, ptr, ptr, ptr, ptr, ptr, ptr, ptr, ptr, ptr, ptr, ptr, ptr, ptr, ptr, ptr, [128 x i8], ptr, ptr, ptr, i32, i32 }
%struct.dt_action_t = type { i32, ptr, ptr, ptr, ptr, ptr }
%struct.dt_imageio_xcf_gui_t = type { ptr }

@.str.13 = private unnamed_addr constant [31 x i8] c"plugins/imageio/format/xcf/bpp\00", align 1
@gui_init.texts = internal global [4 x ptr] [ptr @.str.17, ptr @.str.18, ptr @.str.19, ptr null], align 16
@.str.20 = private unnamed_addr constant [10 x i8] c"bit depth\00", align 1
@.str.21 = private unnamed_addr constant [122 x i8] c"generated/home/dtcxzyw/WorkSpace/Projects/compilers/llvm-opt-benchmark/bench/darktable/darktable/src/imageio/format/xcf.c\00", align 1
@__FUNCTION__.gui_init = private unnamed_addr constant [9 x i8] c"gui_init\00", align 1

; Function Attrs: inlinehint nounwind willreturn memory(read) uwtable
define available_externally i32 @atoi(ptr noundef nonnull %0) #10 {
  %2 = alloca ptr, align 8
  store ptr %0, ptr %2, align 8, !tbaa !11
  %3 = load ptr, ptr %2, align 8, !tbaa !11
  %4 = call i64 @strtol(ptr noundef %3, ptr noundef null, i32 noundef 10) #12
  %5 = trunc i64 %4 to i32
  ret i32 %5
}

; Function Attrs: nounwind uwtable
define void @gui_init(ptr noundef %0) #0 {
  %2 = alloca ptr, align 8
  %3 = alloca ptr, align 8
  %4 = alloca i32, align 4
  %5 = alloca ptr, align 8
  %6 = alloca [2 x ptr], align 8
  store ptr %0, ptr %2, align 8, !tbaa !119
  call void @llvm.lifetime.start.p0(i64 8, ptr %3) #12
  %7 = call noalias ptr @malloc(i64 noundef 8) #13
  store ptr %7, ptr %3, align 8, !tbaa !125
  %8 = load ptr, ptr %3, align 8, !tbaa !125
  %9 = load ptr, ptr %2, align 8, !tbaa !119
  %10 = getelementptr inbounds nuw %struct.dt_imageio_module_format_t, ptr %9, i32 0, i32 24
  store ptr %8, ptr %10, align 8, !tbaa !121
  call void @llvm.lifetime.start.p0(i64 4, ptr %4) #12
  store i32 32, ptr %4, align 4, !tbaa !14
  %11 = call i32 @dt_conf_key_exists(ptr noundef @.str.13)
  %12 = icmp ne i32 %11, 0
  br i1 %12, label %13, label %17

13:                                               ; preds = %1
  call void @llvm.lifetime.start.p0(i64 8, ptr %5) #12
  %14 = call ptr @dt_conf_get_string_const(ptr noundef @.str.13)
  store ptr %14, ptr %5, align 8, !tbaa !11
  %15 = load ptr, ptr %5, align 8, !tbaa !11
  %16 = call i32 @atoi(ptr noundef %15) #14
  store i32 %16, ptr %4, align 4, !tbaa !14
  call void @llvm.lifetime.end.p0(i64 8, ptr %5) #12
  br label %17

17:                                               ; preds = %13, %1
  %18 = load ptr, ptr %2, align 8, !tbaa !119
  %19 = icmp ne ptr %18, null
  br i1 %19, label %20, label %23

20:                                               ; preds = %17
  %21 = load ptr, ptr %2, align 8, !tbaa !119
  %22 = getelementptr inbounds nuw %struct.dt_imageio_module_format_t, ptr %21, i32 0, i32 0
  br label %24

23:                                               ; preds = %17
  br label %24

24:                                               ; preds = %23, %20
  %25 = phi ptr [ %22, %20 ], [ null, %23 ]
  %26 = load i32, ptr %4, align 4, !tbaa !14
  %27 = icmp eq i32 %26, 16
  br i1 %27, label %28, label %29

28:                                               ; preds = %24
  br label %33

29:                                               ; preds = %24
  %30 = load i32, ptr %4, align 4, !tbaa !14
  %31 = icmp eq i32 %30, 32
  %32 = select i1 %31, i32 2, i32 0
  br label %33

33:                                               ; preds = %29, %28
  %34 = phi i32 [ 1, %28 ], [ %32, %29 ]
  %35 = call ptr @dt_bauhaus_combobox_new_full(ptr noundef %25, ptr noundef null, ptr noundef @.str.20, ptr noundef null, i32 noundef %34, ptr noundef @bpp_combobox_changed, ptr noundef null, ptr noundef @gui_init.texts)
  %36 = load ptr, ptr %3, align 8, !tbaa !125
  %37 = getelementptr inbounds nuw %struct.dt_imageio_xcf_gui_t, ptr %36, i32 0, i32 0
  store ptr %35, ptr %37, align 8, !tbaa !127
  %38 = call ptr @gtk_box_new(i32 noundef 1, i32 noundef 0)
  %39 = call i64 @gtk_box_get_type() #17
  %40 = call ptr @g_type_check_instance_cast(ptr noundef %38, i64 noundef %39)
  %41 = load ptr, ptr %3, align 8, !tbaa !125
  %42 = getelementptr inbounds nuw %struct.dt_imageio_xcf_gui_t, ptr %41, i32 0, i32 0
  %43 = load ptr, ptr %42, align 8, !tbaa !127
  store ptr %43, ptr %6, align 8, !tbaa !13
  %44 = getelementptr inbounds ptr, ptr %6, i64 1
  store ptr inttoptr (i64 -1 to ptr), ptr %44, align 8, !tbaa !13
  %45 = getelementptr inbounds [2 x ptr], ptr %6, i64 0, i64 0
  %46 = call ptr @dt_gui_box_add(ptr noundef @.str.21, i32 noundef 362, ptr noundef @__FUNCTION__.gui_init, ptr noundef %40, ptr noundef %45)
  %47 = load ptr, ptr %2, align 8, !tbaa !119
  %48 = getelementptr inbounds nuw %struct.dt_imageio_module_format_t, ptr %47, i32 0, i32 23
  store ptr %46, ptr %48, align 8, !tbaa !129
  call void @llvm.lifetime.end.p0(i64 4, ptr %4) #12
  call void @llvm.lifetime.end.p0(i64 8, ptr %3) #12
  ret void
}