; Function Attrs: nounwind uwtable
define void @gui_init(ptr noundef initializes((352, 360)) %0) local_unnamed_addr #1 {
  %2 = alloca [2 x ptr], align 8
  %3 = tail call noalias dereferenceable_or_null(8) ptr @malloc(i64 noundef 8) #18
  %4 = getelementptr inbounds nuw i8, ptr %0, i64 352
  store ptr %3, ptr %4, align 8, !tbaa !56
  %5 = tail call i32 @dt_conf_key_exists(ptr noundef nonnull @.str.13) #17
  %.not = icmp eq i32 %5, 0
  br i1 %.not, label %.thread12, label %6

6:                                                ; preds = %1
  %7 = tail call ptr @dt_conf_get_string_const(ptr noundef nonnull @.str.13) #17
  %8 = tail call i64 @strtol(ptr noundef nonnull captures(none) %7, ptr noundef null, i32 noundef 10) #17
  %.fr15 = freeze i64 %8
  %9 = trunc i64 %.fr15 to i32
  %10 = icmp eq i32 %9, 16
  %11 = icmp eq i32 %9, 32
  %. = select i1 %11, i32 2, i32 0
  %spec.select = select i1 %10, i32 1, i32 %.
  br label %.thread12

.thread12:                                        ; preds = %6, %1
  %12 = phi i32 [ 2, %1 ], [ %spec.select, %6 ]
  %13 = tail call ptr @dt_bauhaus_combobox_new_full(ptr noundef nonnull %0, ptr noundef null, ptr noundef nonnull @.str.20, ptr noundef null, i32 noundef %12, ptr noundef nonnull @bpp_combobox_changed, ptr noundef null, ptr noundef nonnull @gui_init.texts) #17
  store ptr %13, ptr %3, align 8, !tbaa !61
  %14 = tail call ptr @gtk_box_new(i32 noundef 1, i32 noundef 0) #17
  %15 = tail call i64 @gtk_box_get_type() #21
  %16 = tail call ptr @g_type_check_instance_cast(ptr noundef %14, i64 noundef %15) #17
  %17 = load ptr, ptr %3, align 8, !tbaa !61
  store ptr %17, ptr %2, align 8, !tbaa !39
  %18 = getelementptr inbounds nuw i8, ptr %2, i64 8
  store ptr inttoptr (i64 -1 to ptr), ptr %18, align 8, !tbaa !39
  %19 = call ptr @dt_gui_box_add(ptr noundef nonnull @.str.21, i32 noundef 362, ptr noundef nonnull @__FUNCTION__.gui_init, ptr noundef %16, ptr noundef nonnull %2) #17
  %20 = getelementptr inbounds nuw i8, ptr %0, i64 344
  store ptr %19, ptr %20, align 8, !tbaa !63
  ret void
}